#include <math.h>
#include <stdio.h>
#include <stdlib.h>
#include <string.h>

int main()
{
	int n;
	scanf("%d",&n);
	int i,j,k;
    double sum,ave,fc;
	double sz[1000];
	for (i=0;i<n;i++)
	{
        scanf("%d",&j);
		sum=0;
		fc=0;
		for (k=0;k<j;k++)
		{
		scanf("%lf",&sz[k]);
		sum=sum+sz[k];
		}
        ave=(double)sum/j;
		for (k=0;k<j;k++)
		{
			fc=fc+pow(sz[k]-ave,2);
		}
		fc=(double)fc/j;
		fc=sqrt(fc);
		printf("%.5lf\n",fc);
		


	}
	
	
	return 0;
}